target datalayout = "e-m:e-p270:32:32-p271:32:32-p272:64:64-i64:64-i128:128-f80:128-n8:16:32:64-S128"
target triple = "x86_64-pc-linux-gnu"

@.str.5 = private unnamed_addr constant [8 x i8] c".000000\00", align 1

; Function Attrs: nounwind uwtable
define void @dt_datetime_add_subsec_to_exif(ptr noundef %0, i64 noundef %1, ptr noundef %2) #0 {
  %4 = alloca ptr, align 8
  %5 = alloca i64, align 8
  %6 = alloca ptr, align 8
  %7 = alloca i32, align 4
  store ptr %0, ptr %4, align 8, !tbaa !60
  store i64 %1, ptr %5, align 8, !tbaa !67
  store ptr %2, ptr %6, align 8, !tbaa !60
  %8 = load ptr, ptr %4, align 8, !tbaa !60
  %9 = icmp ne ptr %8, null
  br i1 %9, label %10, label %13

10:                                               ; preds = %3
  %11 = load i64, ptr %5, align 8, !tbaa !67
  %12 = icmp ult i64 %11, 21
  br i1 %12, label %13, label %14

13:                                               ; preds = %10, %3
  br label %61

14:                                               ; preds = %10
  %15 = load ptr, ptr %4, align 8, !tbaa !60
  %16 = getelementptr inbounds i8, ptr %15, i64 19
  %17 = load i64, ptr %5, align 8, !tbaa !67
  %18 = sub i64 %17, 20
  %19 = add i64 %18, 1
  %20 = call i64 @g_strlcpy(ptr noundef %16, ptr noundef @.str.5, i64 noundef %19)
  call void @llvm.lifetime.start.p0(i64 4, ptr %7) #7
  store i32 0, ptr %7, align 4, !tbaa !62
  br label %21

21:                                               ; preds = %53, %14
  %22 = load i32, ptr %7, align 4, !tbaa !62
  %23 = icmp slt i32 %22, 6
  br i1 %23, label %24, label %39

24:                                               ; preds = %21
  %25 = load ptr, ptr %6, align 8, !tbaa !60
  %26 = load i32, ptr %7, align 4, !tbaa !62
  %27 = sext i32 %26 to i64
  %28 = getelementptr inbounds i8, ptr %25, i64 %27
  %29 = load i8, ptr %28, align 1, !tbaa !61
  %30 = sext i8 %29 to i32
  %31 = icmp ne i32 %30, 0
  br i1 %31, label %32, label %39

32:                                               ; preds = %24
  %33 = load i32, ptr %7, align 4, !tbaa !62
  %34 = add nsw i32 20, %33
  %35 = sext i32 %34 to i64
  %36 = load i64, ptr %5, align 8, !tbaa !67
  %37 = sub i64 %36, 1
  %38 = icmp ult i64 %35, %37
  br label %39

39:                                               ; preds = %32, %24, %21
  %40 = phi i1 [ false, %24 ], [ false, %21 ], [ %38, %32 ]
  br i1 %40, label %42, label %41

41:                                               ; preds = %39
  call void @llvm.lifetime.end.p0(i64 4, ptr %7) #7
  br label %56

42:                                               ; preds = %39
  %43 = load ptr, ptr %6, align 8, !tbaa !60
  %44 = load i32, ptr %7, align 4, !tbaa !62
  %45 = sext i32 %44 to i64
  %46 = getelementptr inbounds i8, ptr %43, i64 %45
  %47 = load i8, ptr %46, align 1, !tbaa !61
  %48 = load ptr, ptr %4, align 8, !tbaa !60
  %49 = load i32, ptr %7, align 4, !tbaa !62
  %50 = add nsw i32 20, %49
  %51 = sext i32 %50 to i64
  %52 = getelementptr inbounds i8, ptr %48, i64 %51
  store i8 %47, ptr %52, align 1, !tbaa !61
  br label %53

53:                                               ; preds = %42
  %54 = load i32, ptr %7, align 4, !tbaa !62
  %55 = add nsw i32 %54, 1
  store i32 %55, ptr %7, align 4, !tbaa !62
  br label %21

56:                                               ; preds = %41
  %57 = load ptr, ptr %4, align 8, !tbaa !60
  %58 = load i64, ptr %5, align 8, !tbaa !67
  %59 = sub i64 %58, 1
  %60 = getelementptr inbounds nuw i8, ptr %57, i64 %59
  store i8 0, ptr %60, align 1, !tbaa !61
  br label %61

61:                                               ; preds = %56, %13
  ret void
}